; Function Attrs: nofree nounwind uwtable
define noundef i32 @File_Write(ptr noundef readonly captures(none) %0, ptr noundef captures(none) %1, ptr noundef captures(none) %2) local_unnamed_addr #1 {
  %4 = load i64, ptr %2, align 8, !tbaa !12
  %5 = icmp eq i64 %4, 0
  br i1 %5, label %13, label %6

6:                                                ; preds = %3
  %7 = load ptr, ptr %0, align 8, !tbaa !3
  %8 = tail call i64 @fwrite(ptr noundef %1, i64 noundef 1, i64 noundef %4, ptr noundef %7)
  store i64 %8, ptr %2, align 8, !tbaa !12
  %9 = icmp eq i64 %8, %4
  br i1 %9, label %13, label %10

10:                                               ; preds = %6
  %11 = load ptr, ptr %0, align 8, !tbaa !3
  %12 = tail call i32 @ferror(ptr noundef %11) #6
  br label %13

13:                                               ; preds = %6, %3, %10
  %.0 = phi i32 [ %12, %10 ], [ 0, %3 ], [ 0, %6 ]
  ret i32 %.0
}